Certificate:
    Data:
        Version: 3 (0x2)
        Serial Number: 1 (0x1)
    Signature Algorithm: sha1WithRSAEncryption
        Issuer: C=aa, ST=Some-State, O=Internet Widgits Pty Ltd
        Validity
            Not Before: Jan  1 00:00:00 1970 GMT
            Not After : Feb  3 23:00:27 2025 GMT
        Subject: C=aa, ST=Some-State, O=Internet Widgits Pty Ltd, CN=a
        Subject Public Key Info:
            Public Key Algorithm: rsaEncryption
                Public-Key: (2048 bit)
                Modulus:
                    00:b4:a0:4c:8b:e8:48:e8:66:53:84:36:6a:14:eb:
                    20:1c:fd:67:20:dc:9f:f4:3c:11:87:1e:55:3b:12:
                    e6:95:51:5d:dc:f6:36:23:91:ed:af:4b:3c:6e:75:
                    0f:e4:54:f5:e5:90:19:82:c3:4c:34:d1:8a:fc:5c:
                    76:e0:86:4b:b7:fb:1d:68:d6:3d:da:e2:6e:86:69:
                    7b:13:12:ba:48:57:fd:a3:17:3e:ce:c1:6a:d6:85:
                    7d:58:a2:f8:27:e4:29:47:ca:3f:a2:9f:0a:eb:30:
                    a8:ed:ec:fc:57:ec:95:a9:a7:e7:5c:4b:6c:65:87:
                    5a:95:58:f9:ff:ab:9e:60:b4:b3:8d:77:80:5a:e3:
                    1b:75:83:6d:58:3f:c1:ae:9d:6c:14:36:76:9c:a2:
                    31:74:0a:1c:e2:fd:5f:9f:eb:c8:a1:7d:c6:e8:fe:
                    b9:ca:68:8a:49:b4:22:bb:2c:36:39:7e:ba:78:5d:
                    d7:e0:c8:a8:21:16:60:de:32:67:e0:c9:bb:36:e0:
                    74:3d:0c:f9:2a:2e:d4:4f:8d:79:64:a5:32:92:dc:
                    47:d7:de:b9:47:bf:a8:a3:f8:ba:36:a7:16:63:7d:
                    8d:67:b4:cd:75:8a:b5:b4:7f:52:e3:ae:49:fc:6f:
                    f7:5b:58:52:1c:5c:b9:a2:e9:43:9d:4a:a7:0c:0c:
                    ad:17
                Exponent: 65537 (0x10001)
        X509v3 extensions:
            X509v3 Key Usage: 
                Digital Signature
            X509v3 Extended Key Usage: 
                Code Signing
    Signature Algorithm: sha1WithRSAEncryption
         21:5f:8f:ba:79:3d:ec:26:77:cc:58:61:9c:4a:15:54:5e:b2:
         4f:86:95:2d:1d:98:43:fa:a0:03:85:7d:68:2d:29:5b:95:85:
         c9:8e:ec:07:b6:9a:51:45:2f:77:fc:81:2d:6e:3f:2c:7f:84:
         aa:d9:af:2d:63:f0:01:8d:5e:3b:4d:e0:78:a6:ca:79:e5:66:
         54:a2:21:43:06:11:03:15:b6:5f:7b:9e:9c:72:76:80:de:9f:
         6e:e5:12:80:4a:17:b9:70:77:ec:f6:19:99:41:92:e5:8a:da:
         ae:fb:20:26:c4:bf:ad:8f:77:05:27:2b:51:cb:33:ce:a3:0f:
         ac:99:7b:bf:88:6b:9e:7b:c2:f6:b1:1f:53:92:d9:91:75:d7:
         39:57:7b:c0:f4:3b:eb:3a:65:17:37:b6:19:55:a9:72:55:8c:
         c2:c3:49:8d:30:52:c1:c8:0f:1d:5b:40:97:27:94:27:48:f2:
         5d:07:ad:e8:b9:2c:8f:e3:98:99:6f:d1:e5:c2:dd:77:b9:7c:
         f3:9b:5f:19:89:ca:b2:d6:a8:10:e3:24:ab:4a:1f:c1:69:39:
         52:b1:bb:67:6d:ae:3c:98:1d:a8:30:c7:dd:e1:86:3f:46:0a:
         5c:cb:7a:fd:81:7d:9b:1d:a3:1c:cb:04:d7:ca:d3:3b:80:f8:
         45:ab:6d:98
-----BEGIN CERTIFICATE-----
MIIDNzCCAh+gAwIBAgIBATANBgkqhkiG9w0BAQUFADBFMQswCQYDVQQGEwJhYTET
MBEGA1UECAwKU29tZS1TdGF0ZTEhMB8GA1UECgwYSW50ZXJuZXQgV2lkZ2l0cyBQ
dHkgTHRkMCAYDzE5NzAwMTAxMDAwMDAwWhcNMjUwMjAzMjMwMDI3WjBRMQswCQYD
VQQGEwJhYTETMBEGA1UECAwKU29tZS1TdGF0ZTEhMB8GA1UECgwYSW50ZXJuZXQg
V2lkZ2l0cyBQdHkgTHRkMQowCAYDVQQDDAFhMIIBIjANBgkqhkiG9w0BAQEFAAOC
AQ8AMIIBCgKCAQEAtKBMi+hI6GZThDZqFOsgHP1nINyf9DwRhx5VOxLmlVFd3PY2
I5Htr0s8bnUP5FT15ZAZgsNMNNGK/Fx24IZLt/sdaNY92uJuhml7ExK6SFf9oxc+
zsFq1oV9WKL4J+QpR8o/op8K6zCo7ez8V+yVqafnXEtsZYdalVj5/6ueYLSzjXeA
WuMbdYNtWD/Brp1sFDZ2nKIxdAoc4v1fn+vIoX3G6P65ymiKSbQiuyw2OX66eF3X
4MioIRZg3jJn4Mm7NuB0PQz5Ki7UT415ZKUyktxH1965R7+oo/i6NqcWY32NZ7TN
dYq1tH9S465J/G/3W1hSHFy5oulDnUqnDAytFwIDAQABoyQwIjALBgNVHQ8EBAMC
B4AwEwYDVR0lBAwwCgYIKwYBBQUHAwMwDQYJKoZIhvcNAQEFBQADggEBACFfj7p5
Pewmd8xYYZxKFVResk+GlS0dmEP6oAOFfWgtKVuVhcmO7Ae2mlFFL3f8gS1uPyx/
hKrZry1j8AGNXjtN4HimynnlZlSiIUMGEQMVtl97npxydoDen27lEoBKF7lwd+z2
GZlBkuWK2q77ICbEv62PdwUnK1HLM86jD6yZe7+Ia557wvaxH1OS2ZF11zlXe8D0
O+s6ZRc3thlVqXJVjMLDSY0wUsHIDx1bQJcnlCdI8l0Hrei5LI/jmJlv0eXC3Xe5
fPObXxmJyrLWqBDjJKtKH8FpOVKxu2dtrjyYHagwx93hhj9GClzLev2BfZsdoxzL
BNfK0zuA+EWrbZg=
-----END CERTIFICATE-----
