Certificate:
    Data:
        Version: 3 (0x2)
        Serial Number: 1 (0x1)
    Signature Algorithm: sha256WithRSAEncryption
        Issuer: C=US, ST=CA, L=SF, O=CoreOS, CN=CoreOS Boot CA/emailAddress=george.tankersley@gmail.com
        Validity
            Not Before: Jan  1 00:00:00 1970 GMT
            Not After : Oct 31 06:53:45 2024 GMT
        Subject: C=US, ST=CA, L=SF, O=CoreOS, CN=CoreOS Boot Signer/emailAddress=george.tankersley@gmail.com
        Subject Public Key Info:
            Public Key Algorithm: rsaEncryption
                Public-Key: (2048 bit)
                Modulus:
                    00:b4:35:c8:8c:86:8f:89:4f:d8:63:f6:a3:80:db:
                    7e:da:dc:53:6e:66:77:0d:1a:7e:0d:b2:3e:6a:85:
                    1c:d9:1c:f9:48:ce:80:e7:31:c2:b3:e1:e4:2b:2b:
                    1f:45:16:0b:52:57:8a:fc:7b:fd:ba:81:8b:35:13:
                    4a:54:2a:be:35:0f:f4:ea:26:38:50:59:0b:9b:9c:
                    88:a3:c9:01:08:fe:43:5d:f1:ef:15:6d:6d:03:06:
                    3c:ab:c5:b8:93:79:84:ba:6b:f6:7b:59:8b:74:c2:
                    2b:2d:a2:e9:e9:82:3f:f5:32:b5:b9:31:f4:9c:4b:
                    e0:84:a0:40:44:01:e1:63:4d:da:a8:c7:3f:76:8e:
                    09:6a:ce:b9:75:32:56:9c:39:5a:44:94:b5:4d:76:
                    64:b0:4e:42:ee:99:5f:9b:96:cb:e7:50:f1:10:2a:
                    09:8c:49:62:5d:e4:b9:29:2b:a7:4a:77:b4:7c:d4:
                    4b:4e:1f:84:ce:9a:be:e1:44:95:29:cd:35:09:ec:
                    c0:cc:a2:31:91:d1:fd:a9:ce:1a:79:3f:2a:9b:94:
                    f2:49:60:7c:ba:f0:1b:62:24:4e:35:39:bb:9b:a1:
                    19:42:04:cb:9b:e0:5a:a5:52:3f:ec:b1:8e:2a:07:
                    20:0f:56:6b:38:55:5e:06:59:dd:57:e5:20:16:47:
                    dc:e9
                Exponent: 65537 (0x10001)
        X509v3 extensions:
            X509v3 Key Usage: 
                Digital Signature
            X509v3 Extended Key Usage: 
                Code Signing
    Signature Algorithm: sha256WithRSAEncryption
         c1:e9:22:50:29:21:26:e8:57:1e:06:ce:f5:0c:47:5f:5d:51:
         57:e2:64:10:75:1b:ca:9b:f0:0f:38:81:91:8d:4e:c1:11:19:
         e3:e9:db:6a:9e:36:66:f8:89:1d:7f:2e:8a:50:1d:0b:5a:c7:
         d4:c5:60:3c:ba:0c:78:1c:40:bd:3c:80:aa:73:ce:04:4e:2c:
         d9:da:5d:6c:19:bf:6e:9e:e5:ba:0e:3a:14:d1:e9:d0:17:0b:
         98:00:ab:3d:18:b7:27:04:2f:15:7f:6d:57:03:11:29:c0:d4:
         86:25:14:e4:91:06:7e:5d:59:ac:3a:67:95:e0:7d:c8:f5:08:
         74:2e:9b:68:af:65:db:25:8b:8a:ae:33:f4:62:4c:10:7c:f4:
         70:25:68:d1:b1:74:43:14:a7:4f:35:b7:5c:30:ca:8b:84:24:
         3a:08:ff:f6:47:79:c6:b4:ef:cc:80:b0:52:2b:19:57:94:0e:
         d2:cd:55:23:ee:1e:32:13:53:8e:1e:2c:46:99:23:0c:c7:2c:
         df:81:6d:60:bd:8a:51:77:69:cf:cc:11:9f:ba:5c:f3:e2:9a:
         0f:de:a9:f4:a5:8d:a8:86:a2:9e:00:82:24:c7:17:3c:14:1a:
         db:04:4c:91:33:05:87:49:69:ea:b3:8d:8e:f9:3a:2c:85:65:
         95:6b:6a:cb
-----BEGIN CERTIFICATE-----
MIIDoDCCAoigAwIBAgIBATANBgkqhkiG9w0BAQsFADB9MQswCQYDVQQGEwJVUzEL
MAkGA1UECAwCQ0ExCzAJBgNVBAcMAlNGMQ8wDQYDVQQKDAZDb3JlT1MxFzAVBgNV
BAMMDkNvcmVPUyBCb290IENBMSowKAYJKoZIhvcNAQkBFhtnZW9yZ2UudGFua2Vy
c2xleUBnbWFpbC5jb20wIBgPMTk3MDAxMDEwMDAwMDBaFw0yNDEwMzEwNjUzNDVa
MIGBMQswCQYDVQQGEwJVUzELMAkGA1UECAwCQ0ExCzAJBgNVBAcMAlNGMQ8wDQYD
VQQKDAZDb3JlT1MxGzAZBgNVBAMMEkNvcmVPUyBCb290IFNpZ25lcjEqMCgGCSqG
SIb3DQEJARYbZ2VvcmdlLnRhbmtlcnNsZXlAZ21haWwuY29tMIIBIjANBgkqhkiG
9w0BAQEFAAOCAQ8AMIIBCgKCAQEAtDXIjIaPiU/YY/ajgNt+2txTbmZ3DRp+DbI+
aoUc2Rz5SM6A5zHCs+HkKysfRRYLUleK/Hv9uoGLNRNKVCq+NQ/06iY4UFkLm5yI
o8kBCP5DXfHvFW1tAwY8q8W4k3mEumv2e1mLdMIrLaLp6YI/9TK1uTH0nEvghKBA
RAHhY03aqMc/do4Jas65dTJWnDlaRJS1TXZksE5C7plfm5bL51DxECoJjEliXeS5
KSunSne0fNRLTh+Ezpq+4USVKc01CezAzKIxkdH9qc4aeT8qm5TySWB8uvAbYiRO
NTm7m6EZQgTLm+BapVI/7LGOKgcgD1ZrOFVeBlndV+UgFkfc6QIDAQABoyQwIjAL
BgNVHQ8EBAMCB4AwEwYDVR0lBAwwCgYIKwYBBQUHAwMwDQYJKoZIhvcNAQELBQAD
ggEBAMHpIlApISboVx4GzvUMR19dUVfiZBB1G8qb8A84gZGNTsERGePp22qeNmb4
iR1/LopQHQtax9TFYDy6DHgcQL08gKpzzgROLNnaXWwZv26e5boOOhTR6dAXC5gA
qz0YtycELxV/bVcDESnA1IYlFOSRBn5dWaw6Z5Xgfcj1CHQum2ivZdsli4quM/Ri
TBB89HAlaNGxdEMUp081t1wwyouEJDoI//ZHeca078yAsFIrGVeUDtLNVSPuHjIT
U44eLEaZIwzHLN+BbWC9ilF3ac/MEZ+6XPPimg/eqfSljaiGop4AgiTHFzwUGtsE
TJEzBYdJaeqzjY75OiyFZZVrass=
-----END CERTIFICATE-----
